; Function Attrs: mustprogress nounwind uwtable
define internal void @_ZN12_GLOBAL__N_117BlockMeanHashImplD0Ev(ptr noundef nonnull align 8 dereferenceable(232) %0) unnamed_addr #7 align 2 personality ptr @__gxx_personality_v0 {
  %2 = getelementptr inbounds nuw i8, ptr %0, i64 136
  tail call void @_ZN2cv3MatD1Ev(ptr noundef nonnull align 8 dereferenceable(96) %2) #21
  %3 = getelementptr inbounds nuw i8, ptr %0, i64 104
  %4 = load ptr, ptr %3, align 8, !tbaa !53
  %.not.i.i.i.i = icmp eq ptr %4, null
  br i1 %.not.i.i.i.i, label %_ZN12_GLOBAL__N_117BlockMeanHashImplD2Ev.exit, label %5

5:                                                ; preds = %1
  tail call void @_ZdlPv(ptr noundef nonnull %4) #24
  br label %_ZN12_GLOBAL__N_117BlockMeanHashImplD2Ev.exit

_ZN12_GLOBAL__N_117BlockMeanHashImplD2Ev.exit:    ; preds = %1, %5
  %6 = getelementptr inbounds nuw i8, ptr %0, i64 8
  tail call void @_ZN2cv3MatD1Ev(ptr noundef nonnull align 8 dereferenceable(96) %6) #21
  tail call void @_ZdlPv(ptr noundef nonnull %0) #24
  ret void
}